(dp0
S'Admire Pretty Poster'
p1
ccopy_reg
_reconstructor
p2
(cgeometry_msgs.msg._Pose
Pose
p3
c__builtin__
object
p4
Ntp5
Rp6
(lp7
g2
(cgeometry_msgs.msg._Point
Point
p8
g4
Ntp9
Rp10
(lp11
F4.058589746115956
aF3.4774635894412333
aF0.0
abag2
(cgeometry_msgs.msg._Quaternion
Quaternion
p12
g4
Ntp13
Rp14
(lp15
F0.0
aF0.0
aF0.7210025970200284
aF0.6929323596790486
ababsS'Room B'
p16
g2
(g3
g4
Ntp17
Rp18
(lp19
g2
(g8
g4
Ntp20
Rp21
(lp22
F0.24031499689163857
aF-9.088018297330988
aF0.0
abag2
(g12
g4
Ntp23
Rp24
(lp25
F0.0
aF0.0
aF-0.06007583844463308
aF0.9981938156666642
ababsS'Room A'
p26
g2
(g3
g4
Ntp27
Rp28
(lp29
g2
(g8
g4
Ntp30
Rp31
(lp32
F2.111754748926848
aF-2.678725446242976
aF0.0
abag2
(g12
g4
Ntp33
Rp34
(lp35
F0.0
aF0.0
aF0.032053909398906705
aF0.9994861414208036
ababs.